; Function Attrs: mustprogress uwtable
define noundef double @_ZNK8QuantLib30SquareRootProcessRNDCalculator6invcdfEdd(ptr nocapture noundef nonnull readonly align 8 dereferenceable(48) %this, double noundef %q, double noundef %t) unnamed_addr #1 align 2 {
entry:
  %ncp.addr.i.i = alloca double, align 8
  %q.addr = alloca double, align 8
  %dist = alloca %"class.boost::math::non_central_chi_squared_distribution", align 8
  store double %q, ptr %q.addr, align 8, !tbaa !20
  %kappa_ = getelementptr inbounds nuw i8, ptr %this, i64 16
  %0 = load double, ptr %kappa_, align 8, !tbaa !11
  %fneg = fneg double %0
  %mul = fmul double %t, %fneg
  %call = tail call double @exp(double noundef %mul) #35, !tbaa !15
  %d_ = getelementptr inbounds nuw i8, ptr %this, i64 32
  %1 = load double, ptr %d_, align 8, !tbaa !13
  %sub = fsub double 1.000000e+00, %call
  %div = fdiv double %1, %sub
  %v0_ = getelementptr inbounds nuw i8, ptr %this, i64 8
  %2 = load double, ptr %v0_, align 8, !tbaa !6
  %mul2 = fmul double %div, %2
  %mul3 = fmul double %call, %mul2
  call void @llvm.lifetime.start.p0(i64 16, ptr nonnull %dist) #35
  %df_ = getelementptr inbounds nuw i8, ptr %this, i64 40
  %3 = load double, ptr %df_, align 8, !tbaa !14
  store double %3, ptr %dist, align 8, !tbaa !17
  %ncp.i = getelementptr inbounds nuw i8, ptr %dist, i64 8
  store double %mul3, ptr %ncp.i, align 8, !tbaa !19
  %or.cond.i.i = tail call i1 @llvm.is.fpclass.f64(double %3, i32 384)
  br i1 %or.cond.i.i, label %_ZN5boost4math6detail8check_dfIdNS0_8policies6policyINS3_14default_policyES5_S5_S5_S5_S5_S5_S5_S5_S5_S5_S5_S5_EEEEbPKcRKT_PS9_RKT0_.exit.i, label %if.then.i.i

if.then.i.i:                                      ; preds = %entry
  call void @_ZN5boost4math8policies6detail11raise_errorISt12domain_errordEEvPKcS6_RKT0_(ptr noundef nonnull @.str, ptr noundef nonnull @.str.6, ptr noundef nonnull align 8 dereferenceable(8) %dist)
  %.pr.i = load double, ptr %ncp.i, align 8, !tbaa !19
  br label %_ZN5boost4math6detail8check_dfIdNS0_8policies6policyINS3_14default_policyES5_S5_S5_S5_S5_S5_S5_S5_S5_S5_S5_S5_EEEEbPKcRKT_PS9_RKT0_.exit.i

_ZN5boost4math6detail8check_dfIdNS0_8policies6policyINS3_14default_policyES5_S5_S5_S5_S5_S5_S5_S5_S5_S5_S5_S5_EEEEbPKcRKT_PS9_RKT0_.exit.i: ; preds = %if.then.i.i, %entry
  %4 = phi double [ %mul3, %entry ], [ %.pr.i, %if.then.i.i ]
  call void @llvm.lifetime.start.p0(i64 8, ptr nonnull %ncp.addr.i.i)
  store double %4, ptr %ncp.addr.i.i, align 8, !tbaa !20
  %cmp.i.i = fcmp olt double %4, 0.000000e+00
  br i1 %cmp.i.i, label %if.then.i2.i, label %lor.lhs.false.i.i

lor.lhs.false.i.i:                                ; preds = %_ZN5boost4math6detail8check_dfIdNS0_8policies6policyINS3_14default_policyES5_S5_S5_S5_S5_S5_S5_S5_S5_S5_S5_S5_EEEEbPKcRKT_PS9_RKT0_.exit.i
  %5 = call double @llvm.fabs.f64(double %4)
  %6 = fcmp one double %5, 0x7FF0000000000000
  %cmp2.i.i = fcmp ule double %4, 0x43E0000000000000
  %or.cond.not.i.i = and i1 %cmp2.i.i, %6
  br i1 %or.cond.not.i.i, label %_ZN5boost4math36non_central_chi_squared_distributionIdNS0_8policies6policyINS2_14default_policyES4_S4_S4_S4_S4_S4_S4_S4_S4_S4_S4_S4_EEEC2Edd.exit, label %if.then.i2.i

if.then.i2.i:                                     ; preds = %lor.lhs.false.i.i, %_ZN5boost4math6detail8check_dfIdNS0_8policies6policyINS3_14default_policyES5_S5_S5_S5_S5_S5_S5_S5_S5_S5_S5_S5_EEEEbPKcRKT_PS9_RKT0_.exit.i
  call void @_ZN5boost4math8policies6detail11raise_errorISt12domain_errordEEvPKcS6_RKT0_(ptr noundef nonnull @.str, ptr noundef nonnull @.str.18, ptr noundef nonnull align 8 dereferenceable(8) %ncp.addr.i.i)
  br label %_ZN5boost4math36non_central_chi_squared_distributionIdNS0_8policies6policyINS2_14default_policyES4_S4_S4_S4_S4_S4_S4_S4_S4_S4_S4_S4_EEEC2Edd.exit

_ZN5boost4math36non_central_chi_squared_distributionIdNS0_8policies6policyINS2_14default_policyES4_S4_S4_S4_S4_S4_S4_S4_S4_S4_S4_S4_EEEC2Edd.exit: ; preds = %lor.lhs.false.i.i, %if.then.i2.i
  call void @llvm.lifetime.end.p0(i64 8, ptr nonnull %ncp.addr.i.i)
  %call.i = call noundef double @_ZN5boost4math6detail13nccs_quantileIdNS0_8policies6policyINS3_14default_policyES5_S5_S5_S5_S5_S5_S5_S5_S5_S5_S5_S5_EEEET_RKNS0_36non_central_chi_squared_distributionIS7_T0_EERKS7_b(ptr noundef nonnull align 8 dereferenceable(16) %dist, ptr noundef nonnull align 8 dereferenceable(8) %q.addr, i1 noundef zeroext false)
  %div5 = fdiv double %call.i, %div
  call void @llvm.lifetime.end.p0(i64 16, ptr nonnull %dist) #35
  ret double %div5
}